target datalayout = "e-m:e-p270:32:32-p271:32:32-p272:64:64-i64:64-i128:128-f80:128-n8:16:32:64-S128"
target triple = "x86_64-pc-linux-gnu"

%"class.cvc5::internal::Integer" = type { %class.__gmp_expr }
%class.__gmp_expr = type { [1 x %struct.__mpz_struct] }
%struct.__mpz_struct = type { i32, i32, ptr }
%"class.cvc5::internal::Cardinality" = type { %"class.cvc5::internal::Integer" }

@_ZN4cvc58internal11Cardinality17s_largeFiniteCardE = external global %"class.cvc5::internal::Integer", align 8

; Function Attrs: mustprogress uwtable
define linkonce_odr hidden void @_ZN10__gmp_exprIA1_12__mpz_structS1_E7init_uiEm(ptr noundef nonnull align 8 dereferenceable(16) %0, i64 noundef %1) #5 comdat align 2 {
  %3 = alloca ptr, align 8
  %4 = alloca i64, align 8
  store ptr %0, ptr %3, align 8, !tbaa !102
  store i64 %1, ptr %4, align 8, !tbaa !56
  %5 = load ptr, ptr %3, align 8
  %6 = load i64, ptr %4, align 8, !tbaa !56
  %7 = icmp eq i64 %6, 0
  %8 = call i1 @llvm.is.constant.i1(i1 %7)
  br i1 %8, label %9, label %15

9:                                                ; preds = %2
  %10 = load i64, ptr %4, align 8, !tbaa !56
  %11 = icmp eq i64 %10, 0
  br i1 %11, label %12, label %15

12:                                               ; preds = %9
  %13 = getelementptr inbounds nuw %class.__gmp_expr, ptr %5, i32 0, i32 0
  %14 = getelementptr inbounds [1 x %struct.__mpz_struct], ptr %13, i64 0, i64 0
  call void @__gmpz_init(ptr noundef %14) #3
  br label %19

15:                                               ; preds = %9, %2
  %16 = getelementptr inbounds nuw %class.__gmp_expr, ptr %5, i32 0, i32 0
  %17 = getelementptr inbounds [1 x %struct.__mpz_struct], ptr %16, i64 0, i64 0
  %18 = load i64, ptr %4, align 8, !tbaa !56
  call void @__gmpz_init_set_ui(ptr noundef %17, i64 noundef %18)
  br label %19

19:                                               ; preds = %15, %12
  ret void
}

; Function Attrs: mustprogress nounwind uwtable
define linkonce_odr hidden void @_ZN10__gmp_exprIA1_12__mpz_structS1_ED2Ev(ptr noundef nonnull align 8 dereferenceable(16) %0) unnamed_addr #4 comdat align 2 personality ptr @__gxx_personality_v0 {
  %2 = alloca ptr, align 8
  store ptr %0, ptr %2, align 8, !tbaa !102
  %3 = load ptr, ptr %2, align 8
  %4 = getelementptr inbounds nuw %class.__gmp_expr, ptr %3, i32 0, i32 0
  %5 = getelementptr inbounds [1 x %struct.__mpz_struct], ptr %4, i64 0, i64 0
  invoke void @__gmpz_clear(ptr noundef %5)
          to label %6 unwind label %7

6:                                                ; preds = %1
  ret void

7:                                                ; preds = %1
  %8 = landingpad { ptr, i32 }
          catch ptr null
  %9 = extractvalue { ptr, i32 } %8, 0
  call void @__clang_call_terminate(ptr %9) #18
  unreachable
}

; Function Attrs: mustprogress uwtable
define linkonce_odr hidden void @_ZN10__gmp_exprIA1_12__mpz_structS1_EC2Ej(ptr noundef nonnull align 8 dereferenceable(16) %0, i32 noundef %1) unnamed_addr #5 comdat align 2 {
  %3 = alloca ptr, align 8
  %4 = alloca i32, align 4
  store ptr %0, ptr %3, align 8, !tbaa !102
  store i32 %1, ptr %4, align 4, !tbaa !8
  %5 = load ptr, ptr %3, align 8
  %6 = load i32, ptr %4, align 4, !tbaa !8
  %7 = zext i32 %6 to i64
  call void @_ZN10__gmp_exprIA1_12__mpz_structS1_E7init_uiEm(ptr noundef nonnull align 8 dereferenceable(16) %5, i64 noundef %7)
  ret void
}

; Function Attrs: inlinehint mustprogress nounwind uwtable
define linkonce_odr hidden void @_ZN4cvc58internal11CardinalityD2Ev(ptr noundef nonnull align 8 dereferenceable(16) %0) unnamed_addr #8 comdat align 2 {
  %2 = alloca ptr, align 8
  store ptr %0, ptr %2, align 8, !tbaa !44
  %3 = load ptr, ptr %2, align 8
  %4 = getelementptr inbounds nuw %"class.cvc5::internal::Cardinality", ptr %3, i32 0, i32 0
  call void @_ZN4cvc58internal7IntegerD2Ev(ptr noundef nonnull align 8 dereferenceable(16) %4) #3
  ret void
}

; Function Attrs: mustprogress nounwind uwtable
define linkonce_odr hidden void @_ZN4cvc58internal7IntegerD2Ev(ptr noundef nonnull align 8 dereferenceable(16) %0) unnamed_addr #4 comdat align 2 {
  %2 = alloca ptr, align 8
  store ptr %0, ptr %2, align 8, !tbaa !46
  %3 = load ptr, ptr %2, align 8
  %4 = getelementptr inbounds nuw %"class.cvc5::internal::Integer", ptr %3, i32 0, i32 0
  call void @_ZN10__gmp_exprIA1_12__mpz_structS1_ED2Ev(ptr noundef nonnull align 8 dereferenceable(16) %4) #3
  ret void
}

; Function Attrs: mustprogress uwtable
define linkonce_odr hidden void @_ZN4cvc58internal7IntegerC2Ej(ptr noundef nonnull align 8 dereferenceable(16) %0, i32 noundef %1) unnamed_addr #5 comdat align 2 {
  %3 = alloca ptr, align 8
  %4 = alloca i32, align 4
  store ptr %0, ptr %3, align 8, !tbaa !46
  store i32 %1, ptr %4, align 4, !tbaa !8
  %5 = load ptr, ptr %3, align 8
  %6 = getelementptr inbounds nuw %"class.cvc5::internal::Integer", ptr %5, i32 0, i32 0
  %7 = load i32, ptr %4, align 4, !tbaa !8
  call void @_ZN10__gmp_exprIA1_12__mpz_structS1_EC2Ej(ptr noundef nonnull align 8 dereferenceable(16) %6, i32 noundef %7)
  ret void
}

; Function Attrs: mustprogress uwtable
define linkonce_odr hidden noundef zeroext i1 @_ZNK4cvc58internal11Cardinality13isLargeFiniteEv(ptr noundef nonnull align 8 dereferenceable(16) %0) #5 comdat align 2 {
  %2 = alloca ptr, align 8
  store ptr %0, ptr %2, align 8, !tbaa !44
  %3 = load ptr, ptr %2, align 8
  %4 = getelementptr inbounds nuw %"class.cvc5::internal::Cardinality", ptr %3, i32 0, i32 0
  %5 = call noundef zeroext i1 @_ZNK4cvc58internal7IntegergeERKS1_(ptr noundef nonnull align 8 dereferenceable(16) %4, ptr noundef nonnull align 8 dereferenceable(16) @_ZN4cvc58internal11Cardinality17s_largeFiniteCardE)
  ret i1 %5
}

; Function Attrs: mustprogress uwtable
define hidden noundef zeroext i1 @_ZN4cvc58internal6theory11quantifiers25QuantifiersBoundInference11mayCompleteENS0_8TypeNodeEj(ptr noundef %0, i32 noundef %1) #5 align 2 personality ptr @__gxx_personality_v0 {
  %3 = alloca i1, align 1
  %4 = alloca ptr, align 8
  %5 = alloca i32, align 4
  %6 = alloca i8, align 1
  %7 = alloca %"class.cvc5::internal::Cardinality", align 8
  %8 = alloca ptr, align 8
  %9 = alloca i32, align 4
  %10 = alloca %"class.cvc5::internal::Integer", align 8
  %11 = alloca %"class.cvc5::internal::Integer", align 8
  store ptr %0, ptr %4, align 8, !tbaa !30
  store i32 %1, ptr %5, align 4, !tbaa !8
  %12 = call noundef zeroext i1 @_ZN4cvc58internal8TypeNode18isClosedEnumerableEv(ptr noundef nonnull align 8 dereferenceable(8) %0)
  br i1 %12, label %14, label %13

13:                                               ; preds = %2
  store i1 false, ptr %3, align 1
  br label %50

14:                                               ; preds = %2
  call void @llvm.lifetime.start.p0(i64 1, ptr %6) #3
  store i8 0, ptr %6, align 1, !tbaa !10
  %15 = call noundef i64 @_ZN4cvc58internal8TypeNode19getCardinalityClassEv(ptr noundef nonnull align 8 dereferenceable(8) %0)
  %16 = call noundef zeroext i1 @_ZN4cvc58internal24isCardinalityClassFiniteENS0_16CardinalityClassEb(i64 noundef %15, i1 noundef zeroext false)
  br i1 %16, label %17, label %47

17:                                               ; preds = %14
  call void @llvm.lifetime.start.p0(i64 16, ptr %7) #3
  call void @_ZNK4cvc58internal8TypeNode14getCardinalityEv(ptr dead_on_unwind writable sret(%"class.cvc5::internal::Cardinality") align 8 %7, ptr noundef nonnull align 8 dereferenceable(8) %0)
  %18 = invoke noundef zeroext i1 @_ZNK4cvc58internal11Cardinality13isLargeFiniteEv(ptr noundef nonnull align 8 dereferenceable(16) %7)
          to label %19 unwind label %27

19:                                               ; preds = %17
  br i1 %18, label %45, label %20

20:                                               ; preds = %19
  call void @llvm.lifetime.start.p0(i64 16, ptr %10) #3
  invoke void @_ZNK4cvc58internal11Cardinality20getFiniteCardinalityEv(ptr dead_on_unwind writable sret(%"class.cvc5::internal::Integer") align 8 %10, ptr noundef nonnull align 8 dereferenceable(16) %7)
          to label %21 unwind label %31

21:                                               ; preds = %20
  call void @llvm.lifetime.start.p0(i64 16, ptr %11) #3
  %22 = load i32, ptr %5, align 4, !tbaa !8
  invoke void @_ZN4cvc58internal7IntegerC2Ej(ptr noundef nonnull align 8 dereferenceable(16) %11, i32 noundef %22)
          to label %23 unwind label %35

23:                                               ; preds = %21
  %24 = invoke noundef zeroext i1 @_ZNK4cvc58internal7IntegerltERKS1_(ptr noundef nonnull align 8 dereferenceable(16) %10, ptr noundef nonnull align 8 dereferenceable(16) %11)
          to label %25 unwind label %39

25:                                               ; preds = %23
  %26 = zext i1 %24 to i8
  store i8 %26, ptr %6, align 1, !tbaa !10
  call void @_ZN4cvc58internal7IntegerD2Ev(ptr noundef nonnull align 8 dereferenceable(16) %11) #3
  call void @llvm.lifetime.end.p0(i64 16, ptr %11) #3
  call void @_ZN4cvc58internal7IntegerD2Ev(ptr noundef nonnull align 8 dereferenceable(16) %10) #3
  call void @llvm.lifetime.end.p0(i64 16, ptr %10) #3
  br label %45

27:                                               ; preds = %17
  %28 = landingpad { ptr, i32 }
          cleanup
  %29 = extractvalue { ptr, i32 } %28, 0
  store ptr %29, ptr %8, align 8
  %30 = extractvalue { ptr, i32 } %28, 1
  store i32 %30, ptr %9, align 4
  br label %46

31:                                               ; preds = %20
  %32 = landingpad { ptr, i32 }
          cleanup
  %33 = extractvalue { ptr, i32 } %32, 0
  store ptr %33, ptr %8, align 8
  %34 = extractvalue { ptr, i32 } %32, 1
  store i32 %34, ptr %9, align 4
  br label %44

35:                                               ; preds = %21
  %36 = landingpad { ptr, i32 }
          cleanup
  %37 = extractvalue { ptr, i32 } %36, 0
  store ptr %37, ptr %8, align 8
  %38 = extractvalue { ptr, i32 } %36, 1
  store i32 %38, ptr %9, align 4
  br label %43

39:                                               ; preds = %23
  %40 = landingpad { ptr, i32 }
          cleanup
  %41 = extractvalue { ptr, i32 } %40, 0
  store ptr %41, ptr %8, align 8
  %42 = extractvalue { ptr, i32 } %40, 1
  store i32 %42, ptr %9, align 4
  call void @_ZN4cvc58internal7IntegerD2Ev(ptr noundef nonnull align 8 dereferenceable(16) %11) #3
  br label %43

43:                                               ; preds = %39, %35
  call void @llvm.lifetime.end.p0(i64 16, ptr %11) #3
  call void @_ZN4cvc58internal7IntegerD2Ev(ptr noundef nonnull align 8 dereferenceable(16) %10) #3
  br label %44

44:                                               ; preds = %43, %31
  call void @llvm.lifetime.end.p0(i64 16, ptr %10) #3
  br label %46

45:                                               ; preds = %25, %19
  call void @_ZN4cvc58internal11CardinalityD2Ev(ptr noundef nonnull align 8 dereferenceable(16) %7) #3
  call void @llvm.lifetime.end.p0(i64 16, ptr %7) #3
  br label %47

46:                                               ; preds = %44, %27
  call void @_ZN4cvc58internal11CardinalityD2Ev(ptr noundef nonnull align 8 dereferenceable(16) %7) #3
  call void @llvm.lifetime.end.p0(i64 16, ptr %7) #3
  call void @llvm.lifetime.end.p0(i64 1, ptr %6) #3
  br label %52

47:                                               ; preds = %45, %14
  %48 = load i8, ptr %6, align 1, !tbaa !10, !range !23, !noundef !24
  %49 = trunc i8 %48 to i1
  store i1 %49, ptr %3, align 1
  call void @llvm.lifetime.end.p0(i64 1, ptr %6) #3
  br label %50

50:                                               ; preds = %47, %13
  %51 = load i1, ptr %3, align 1
  ret i1 %51

52:                                               ; preds = %46
  %53 = load ptr, ptr %8, align 8
  %54 = load i32, ptr %9, align 4
  %55 = insertvalue { ptr, i32 } poison, ptr %53, 0
  %56 = insertvalue { ptr, i32 } %55, i32 %54, 1
  resume { ptr, i32 } %56
}