; Function Attrs: mustprogress uwtable
define hidden noundef zeroext i1 @_ZN4cvc58internal6theory11quantifiers25QuantifiersBoundInference11mayCompleteENS0_8TypeNodeEj(ptr noundef nonnull %0, i32 noundef %1) local_unnamed_addr #4 align 2 personality ptr @__gxx_personality_v0 {
  %3 = alloca %"class.cvc5::internal::Cardinality", align 8
  %4 = alloca %"class.cvc5::internal::Integer", align 8
  %5 = alloca %"class.cvc5::internal::Integer", align 8
  %6 = tail call noundef zeroext i1 @_ZN4cvc58internal8TypeNode18isClosedEnumerableEv(ptr noundef nonnull align 8 dereferenceable(8) %0)
  br i1 %6, label %7, label %45

7:                                                ; preds = %2
  %8 = tail call noundef i64 @_ZN4cvc58internal8TypeNode19getCardinalityClassEv(ptr noundef nonnull align 8 dereferenceable(8) %0)
  %9 = tail call noundef zeroext i1 @_ZN4cvc58internal24isCardinalityClassFiniteENS0_16CardinalityClassEb(i64 noundef %8, i1 noundef zeroext false)
  br i1 %9, label %10, label %45

10:                                               ; preds = %7
  call void @llvm.lifetime.start.p0(i64 16, ptr nonnull %3) #22
  call void @_ZNK4cvc58internal8TypeNode14getCardinalityEv(ptr dead_on_unwind nonnull writable sret(%"class.cvc5::internal::Cardinality") align 8 %3, ptr noundef nonnull align 8 dereferenceable(8) %0)
  %11 = invoke noundef zeroext i1 @_ZNK4cvc58internal7IntegergeERKS1_(ptr noundef nonnull align 8 dereferenceable(16) %3, ptr noundef nonnull align 8 dereferenceable(16) @_ZN4cvc58internal11Cardinality17s_largeFiniteCardE)
          to label %_ZNK4cvc58internal11Cardinality13isLargeFiniteEv.exit unwind label %23

_ZNK4cvc58internal11Cardinality13isLargeFiniteEv.exit: ; preds = %10
  br i1 %11, label %37, label %12

12:                                               ; preds = %_ZNK4cvc58internal11Cardinality13isLargeFiniteEv.exit
  call void @llvm.lifetime.start.p0(i64 16, ptr nonnull %4) #22
  invoke void @_ZNK4cvc58internal11Cardinality20getFiniteCardinalityEv(ptr dead_on_unwind nonnull writable sret(%"class.cvc5::internal::Integer") align 8 %4, ptr noundef nonnull align 8 dereferenceable(16) %3)
          to label %13 unwind label %25

13:                                               ; preds = %12
  call void @llvm.lifetime.start.p0(i64 16, ptr nonnull %5) #22
  %14 = zext i32 %1 to i64
  invoke void @__gmpz_init_set_ui(ptr noundef nonnull align 8 dereferenceable(16) %5, i64 noundef %14)
          to label %_ZN4cvc58internal7IntegerC2Ej.exit unwind label %27

_ZN4cvc58internal7IntegerC2Ej.exit:               ; preds = %13
  %15 = invoke noundef zeroext i1 @_ZNK4cvc58internal7IntegerltERKS1_(ptr noundef nonnull align 8 dereferenceable(16) %4, ptr noundef nonnull align 8 dereferenceable(16) %5)
          to label %16 unwind label %29

16:                                               ; preds = %_ZN4cvc58internal7IntegerC2Ej.exit
  invoke void @__gmpz_clear(ptr noundef nonnull align 8 dereferenceable(16) %5)
          to label %_ZN4cvc58internal7IntegerD2Ev.exit unwind label %17

17:                                               ; preds = %16
  %18 = landingpad { ptr, i32 }
          catch ptr null
  %19 = extractvalue { ptr, i32 } %18, 0
  call void @__clang_call_terminate(ptr %19) #21
  unreachable

_ZN4cvc58internal7IntegerD2Ev.exit:               ; preds = %16
  call void @llvm.lifetime.end.p0(i64 16, ptr nonnull %5) #22
  invoke void @__gmpz_clear(ptr noundef nonnull align 8 dereferenceable(16) %4)
          to label %_ZN4cvc58internal7IntegerD2Ev.exit13 unwind label %20

20:                                               ; preds = %_ZN4cvc58internal7IntegerD2Ev.exit
  %21 = landingpad { ptr, i32 }
          catch ptr null
  %22 = extractvalue { ptr, i32 } %21, 0
  call void @__clang_call_terminate(ptr %22) #21
  unreachable

_ZN4cvc58internal7IntegerD2Ev.exit13:             ; preds = %_ZN4cvc58internal7IntegerD2Ev.exit
  call void @llvm.lifetime.end.p0(i64 16, ptr nonnull %4) #22
  br label %37

23:                                               ; preds = %10
  %24 = landingpad { ptr, i32 }
          cleanup
  br label %41

25:                                               ; preds = %12
  %26 = landingpad { ptr, i32 }
          cleanup
  br label %_ZN4cvc58internal7IntegerD2Ev.exit15

27:                                               ; preds = %13
  %28 = landingpad { ptr, i32 }
          cleanup
  br label %_ZN4cvc58internal7IntegerD2Ev.exit14

29:                                               ; preds = %_ZN4cvc58internal7IntegerC2Ej.exit
  %30 = landingpad { ptr, i32 }
          cleanup
  invoke void @__gmpz_clear(ptr noundef nonnull align 8 dereferenceable(16) %5)
          to label %_ZN4cvc58internal7IntegerD2Ev.exit14 unwind label %31

31:                                               ; preds = %29
  %32 = landingpad { ptr, i32 }
          catch ptr null
  %33 = extractvalue { ptr, i32 } %32, 0
  call void @__clang_call_terminate(ptr %33) #21
  unreachable

_ZN4cvc58internal7IntegerD2Ev.exit14:             ; preds = %29, %27
  %.pn = phi { ptr, i32 } [ %28, %27 ], [ %30, %29 ]
  call void @llvm.lifetime.end.p0(i64 16, ptr nonnull %5) #22
  invoke void @__gmpz_clear(ptr noundef nonnull align 8 dereferenceable(16) %4)
          to label %_ZN4cvc58internal7IntegerD2Ev.exit15 unwind label %34

34:                                               ; preds = %_ZN4cvc58internal7IntegerD2Ev.exit14
  %35 = landingpad { ptr, i32 }
          catch ptr null
  %36 = extractvalue { ptr, i32 } %35, 0
  call void @__clang_call_terminate(ptr %36) #21
  unreachable

_ZN4cvc58internal7IntegerD2Ev.exit15:             ; preds = %_ZN4cvc58internal7IntegerD2Ev.exit14, %25
  %.pn.pn = phi { ptr, i32 } [ %26, %25 ], [ %.pn, %_ZN4cvc58internal7IntegerD2Ev.exit14 ]
  call void @llvm.lifetime.end.p0(i64 16, ptr nonnull %4) #22
  br label %41

37:                                               ; preds = %_ZN4cvc58internal7IntegerD2Ev.exit13, %_ZNK4cvc58internal11Cardinality13isLargeFiniteEv.exit
  %.18 = phi i1 [ false, %_ZNK4cvc58internal11Cardinality13isLargeFiniteEv.exit ], [ %15, %_ZN4cvc58internal7IntegerD2Ev.exit13 ]
  invoke void @__gmpz_clear(ptr noundef nonnull align 8 dereferenceable(16) %3)
          to label %_ZN4cvc58internal11CardinalityD2Ev.exit unwind label %38

38:                                               ; preds = %37
  %39 = landingpad { ptr, i32 }
          catch ptr null
  %40 = extractvalue { ptr, i32 } %39, 0
  call void @__clang_call_terminate(ptr %40) #21
  unreachable

_ZN4cvc58internal11CardinalityD2Ev.exit:          ; preds = %37
  call void @llvm.lifetime.end.p0(i64 16, ptr nonnull %3) #22
  br label %45

41:                                               ; preds = %_ZN4cvc58internal7IntegerD2Ev.exit15, %23
  %.pn.pn.pn = phi { ptr, i32 } [ %.pn.pn, %_ZN4cvc58internal7IntegerD2Ev.exit15 ], [ %24, %23 ]
  invoke void @__gmpz_clear(ptr noundef nonnull align 8 dereferenceable(16) %3)
          to label %_ZN4cvc58internal11CardinalityD2Ev.exit16 unwind label %42

42:                                               ; preds = %41
  %43 = landingpad { ptr, i32 }
          catch ptr null
  %44 = extractvalue { ptr, i32 } %43, 0
  call void @__clang_call_terminate(ptr %44) #21
  unreachable

_ZN4cvc58internal11CardinalityD2Ev.exit16:        ; preds = %41
  call void @llvm.lifetime.end.p0(i64 16, ptr nonnull %3) #22
  resume { ptr, i32 } %.pn.pn.pn

45:                                               ; preds = %7, %_ZN4cvc58internal11CardinalityD2Ev.exit, %2
  %.09 = phi i1 [ false, %2 ], [ %.18, %_ZN4cvc58internal11CardinalityD2Ev.exit ], [ false, %7 ]
  ret i1 %.09
}